target datalayout = "e-m:e-p270:32:32-p271:32:32-p272:64:64-i64:64-i128:128-f80:128-n8:16:32:64-S128"
target triple = "x86_64-pc-linux-gnu"

@.str.4 = private unnamed_addr constant [16 x i8] c"aliases = [\22%s\22\00", align 1
@.str.5 = private unnamed_addr constant [7 x i8] c", \22%s\22\00", align 1
@.str.6 = private unnamed_addr constant [3 x i8] c"]\0A\00", align 1

; Function Attrs: mustprogress uwtable
define dso_local void @_Z19dumpPropertyAliases9UPropertyP8_IO_FILE(i32 noundef %0, ptr noundef %1) #5 {
  %3 = alloca i32, align 4
  %4 = alloca ptr, align 8
  %5 = alloca i32, align 4
  %6 = alloca ptr, align 8
  %7 = alloca i32, align 4
  store i32 %0, ptr %3, align 4, !tbaa !34
  store ptr %1, ptr %4, align 8, !tbaa !36
  call void @llvm.lifetime.start.p0(i64 4, ptr %5) #3
  store i32 2, ptr %5, align 4, !tbaa !15
  br label %8

8:                                                ; preds = %32, %2
  br label %9

9:                                                ; preds = %8
  call void @llvm.lifetime.start.p0(i64 8, ptr %6) #3
  %10 = load i32, ptr %3, align 4, !tbaa !34
  %11 = load i32, ptr %5, align 4, !tbaa !15
  %12 = call ptr @u_getPropertyName_77(i32 noundef %10, i32 noundef %11)
  store ptr %12, ptr %6, align 8, !tbaa !18
  %13 = load ptr, ptr %6, align 8, !tbaa !18
  %14 = icmp ne ptr %13, null
  br i1 %14, label %16, label %15

15:                                               ; preds = %9
  store i32 3, ptr %7, align 4
  br label %30

16:                                               ; preds = %9
  %17 = load i32, ptr %5, align 4, !tbaa !15
  %18 = icmp eq i32 %17, 2
  br i1 %18, label %19, label %23

19:                                               ; preds = %16
  %20 = load ptr, ptr %4, align 8, !tbaa !36
  %21 = load ptr, ptr %6, align 8, !tbaa !18
  %22 = call i32 (ptr, ptr, ...) @fprintf(ptr noundef %20, ptr noundef @.str.4, ptr noundef %21) #3
  br label %27

23:                                               ; preds = %16
  %24 = load ptr, ptr %4, align 8, !tbaa !36
  %25 = load ptr, ptr %6, align 8, !tbaa !18
  %26 = call i32 (ptr, ptr, ...) @fprintf(ptr noundef %24, ptr noundef @.str.5, ptr noundef %25) #3
  br label %27

27:                                               ; preds = %23, %19
  %28 = load i32, ptr %5, align 4, !tbaa !15
  %29 = add nsw i32 %28, 1
  store i32 %29, ptr %5, align 4, !tbaa !15
  store i32 0, ptr %7, align 4
  br label %30

30:                                               ; preds = %27, %15
  call void @llvm.lifetime.end.p0(i64 8, ptr %6) #3
  %31 = load i32, ptr %7, align 4
  switch i32 %31, label %40 [
    i32 0, label %32
    i32 3, label %33
  ]

32:                                               ; preds = %30
  br label %8, !llvm.loop !38

33:                                               ; preds = %30
  %34 = load i32, ptr %5, align 4, !tbaa !15
  %35 = icmp ne i32 %34, 2
  br i1 %35, label %36, label %39

36:                                               ; preds = %33
  %37 = load ptr, ptr %4, align 8, !tbaa !36
  %38 = call i32 (ptr, ptr, ...) @fprintf(ptr noundef %37, ptr noundef @.str.6) #3
  br label %39

39:                                               ; preds = %36, %33
  call void @llvm.lifetime.end.p0(i64 4, ptr %5) #3
  ret void

40:                                               ; preds = %30
  unreachable
}