; Function Attrs: mustprogress uwtable
define dso_local void @_Z19dumpPropertyAliases9UPropertyP8_IO_FILE(i32 noundef %0, ptr noundef captures(none) %1) local_unnamed_addr #4 {
  %3 = tail call ptr @u_getPropertyName_77(i32 noundef %0, i32 noundef 2)
  %.not18 = icmp eq ptr %3, null
  br i1 %.not18, label %._crit_edge.thread, label %.lr.ph

.lr.ph:                                           ; preds = %2, %.lr.ph
  %4 = phi ptr [ %8, %.lr.ph ], [ %3, %2 ]
  %.01119 = phi i32 [ %7, %.lr.ph ], [ 2, %2 ]
  %5 = icmp eq i32 %.01119, 2
  %.str.4..str.5 = select i1 %5, ptr @.str.4, ptr @.str.5
  %6 = tail call i32 (ptr, ptr, ...) @fprintf(ptr noundef %1, ptr noundef nonnull %.str.4..str.5, ptr noundef nonnull %4) #28
  %7 = add nuw nsw i32 %.01119, 1
  %8 = tail call ptr @u_getPropertyName_77(i32 noundef %0, i32 noundef %7)
  %.not = icmp eq ptr %8, null
  br i1 %.not, label %._crit_edge, label %.lr.ph

._crit_edge:                                      ; preds = %.lr.ph
  %9 = icmp eq i32 %7, 2
  br i1 %9, label %._crit_edge.thread, label %10

10:                                               ; preds = %._crit_edge
  %11 = tail call i64 @fwrite(ptr nonnull @.str.6, i64 2, i64 1, ptr %1)
  br label %._crit_edge.thread

._crit_edge.thread:                               ; preds = %2, %10, %._crit_edge
  ret void
}